target datalayout = "e-m:e-p270:32:32-p271:32:32-p272:64:64-i64:64-i128:128-f80:128-n8:16:32:64-S128"
target triple = "x86_64-pc-linux-gnu"

%struct.QMapDataBase = type { %"class.QtPrivate::RefCount", i32, %struct.QMapNodeBase, ptr }
%"class.QtPrivate::RefCount" = type { %class.QBasicAtomicInteger }
%class.QBasicAtomicInteger = type { %"struct.std::atomic.75" }
%"struct.std::atomic.75" = type { %"struct.std::__atomic_base.76" }
%"struct.std::__atomic_base.76" = type { i32 }
%struct.QMapNodeBase = type { i64, ptr, ptr }
%class.AlignDialog = type { %class.QDockWidget, %"class.Ui::alignDialog", ptr, ptr, ptr, ptr, %class.QMap, %class.QMap.54, %class.QMap.54, %class.QMenu }
%class.QDockWidget = type { %class.QWidget }
%class.QWidget = type { %class.QObject, %class.QPaintDevice, ptr }
%class.QObject = type { ptr, %class.QScopedPointer }
%class.QScopedPointer = type { ptr }
%class.QPaintDevice = type { ptr, i16, ptr }
%"class.Ui::alignDialog" = type { %class.Ui_alignDialog }
%class.Ui_alignDialog = type { ptr, ptr, ptr, ptr, ptr, ptr, ptr, ptr, ptr, ptr, ptr, ptr, ptr, ptr, ptr, ptr, ptr, ptr, ptr, ptr, ptr, ptr, ptr, ptr, ptr, ptr, ptr, ptr }
%class.QMap = type { ptr }
%class.QMap.54 = type { ptr }
%class.QMenu = type { %class.QWidget }
%class.QFont = type <{ %class.QExplicitlySharedDataPointer, i32, [4 x i8] }>
%class.QExplicitlySharedDataPointer = type { ptr }
%class.QFlags.77 = type { i32 }
%class.QFlags.78 = type { i32 }
%class.QFlags.79 = type { i32 }
%class.QPoint = type { i32, i32 }
%"class.QMetaObject::Connection" = type { ptr }
%class.QRect = type { i32, i32, i32, i32 }
%class.QWidgetData = type { i64, i32, %class.QFlags.77, i32, %class.QRect, [4 x i8], %class.QPalette, %class.QFont, %class.QRect }
%class.QPalette = type <{ ptr, %union.anon.87, [4 x i8] }>
%union.anon.87 = type { %"struct.QPalette::Data" }
%"struct.QPalette::Data" = type { i32 }

@_ZL17globalLogTextEdit = internal global ptr null, align 8
@_ZTV11AlignDialog = external unnamed_addr constant { [54 x ptr], [10 x ptr] }, align 8
@.str.6 = private unnamed_addr constant [37 x i8] c"2itemClicked(QTreeWidgetItem *, int)\00", align 1
@.str.7 = private unnamed_addr constant [37 x i8] c"1onClickItem(QTreeWidgetItem *, int)\00", align 1
@_ZN12QMapDataBase11shared_nullE = external global %struct.QMapDataBase, align 8

; Function Attrs: mustprogress nounwind uwtable
define linkonce_odr void @_ZN5QRectC2Eiiii(ptr noundef nonnull align 4 dereferenceable(16) %0, i32 noundef %1, i32 noundef %2, i32 noundef %3, i32 noundef %4) unnamed_addr #4 comdat align 2 {
  %6 = alloca ptr, align 8
  %7 = alloca i32, align 4
  %8 = alloca i32, align 4
  %9 = alloca i32, align 4
  %10 = alloca i32, align 4
  store ptr %0, ptr %6, align 8
  store i32 %1, ptr %7, align 4
  store i32 %2, ptr %8, align 4
  store i32 %3, ptr %9, align 4
  store i32 %4, ptr %10, align 4
  %11 = load ptr, ptr %6, align 8
  %12 = getelementptr inbounds %class.QRect, ptr %11, i32 0, i32 0
  %13 = load i32, ptr %7, align 4
  store i32 %13, ptr %12, align 4
  %14 = getelementptr inbounds %class.QRect, ptr %11, i32 0, i32 1
  %15 = load i32, ptr %8, align 4
  store i32 %15, ptr %14, align 4
  %16 = getelementptr inbounds %class.QRect, ptr %11, i32 0, i32 2
  %17 = load i32, ptr %7, align 4
  %18 = load i32, ptr %9, align 4
  %19 = add nsw i32 %17, %18
  %20 = sub nsw i32 %19, 1
  store i32 %20, ptr %16, align 4
  %21 = getelementptr inbounds %class.QRect, ptr %11, i32 0, i32 3
  %22 = load i32, ptr %8, align 4
  %23 = load i32, ptr %10, align 4
  %24 = add nsw i32 %22, %23
  %25 = sub nsw i32 %24, 1
  store i32 %25, ptr %21, align 4
  ret void
}

; Function Attrs: mustprogress nounwind uwtable
define linkonce_odr noundef i32 @_ZNK5QRect6heightEv(ptr noundef nonnull align 4 dereferenceable(16) %0) #4 comdat align 2 {
  %2 = alloca ptr, align 8
  store ptr %0, ptr %2, align 8
  %3 = load ptr, ptr %2, align 8
  %4 = getelementptr inbounds %class.QRect, ptr %3, i32 0, i32 3
  %5 = load i32, ptr %4, align 4
  %6 = getelementptr inbounds %class.QRect, ptr %3, i32 0, i32 1
  %7 = load i32, ptr %6, align 4
  %8 = sub nsw i32 %5, %7
  %9 = add nsw i32 %8, 1
  ret i32 %9
}

; Function Attrs: mustprogress nounwind uwtable
define linkonce_odr noundef i32 @_ZNK5QRect5widthEv(ptr noundef nonnull align 4 dereferenceable(16) %0) #4 comdat align 2 {
  %2 = alloca ptr, align 8
  store ptr %0, ptr %2, align 8
  %3 = load ptr, ptr %2, align 8
  %4 = getelementptr inbounds %class.QRect, ptr %3, i32 0, i32 2
  %5 = load i32, ptr %4, align 4
  %6 = getelementptr inbounds %class.QRect, ptr %3, i32 0, i32 0
  %7 = load i32, ptr %6, align 4
  %8 = sub nsw i32 %5, %7
  %9 = add nsw i32 %8, 1
  ret i32 %9
}

; Function Attrs: mustprogress uwtable
define linkonce_odr void @_ZN7QWidget11setGeometryEiiii(ptr noundef nonnull align 8 dereferenceable(48) %0, i32 noundef %1, i32 noundef %2, i32 noundef %3, i32 noundef %4) #5 comdat align 2 {
  %6 = alloca ptr, align 8
  %7 = alloca i32, align 4
  %8 = alloca i32, align 4
  %9 = alloca i32, align 4
  %10 = alloca i32, align 4
  %11 = alloca %class.QRect, align 4
  store ptr %0, ptr %6, align 8
  store i32 %1, ptr %7, align 4
  store i32 %2, ptr %8, align 4
  store i32 %3, ptr %9, align 4
  store i32 %4, ptr %10, align 4
  %12 = load ptr, ptr %6, align 8
  %13 = load i32, ptr %7, align 4
  %14 = load i32, ptr %8, align 4
  %15 = load i32, ptr %9, align 4
  %16 = load i32, ptr %10, align 4
  call void @_ZN5QRectC2Eiiii(ptr noundef nonnull align 4 dereferenceable(16) %11, i32 noundef %13, i32 noundef %14, i32 noundef %15, i32 noundef %16) #3
  call void @_ZN7QWidget11setGeometryERK5QRect(ptr noundef nonnull align 8 dereferenceable(48) %12, ptr noundef nonnull align 4 dereferenceable(16) %11)
  ret void
}

; Function Attrs: mustprogress nounwind uwtable
define linkonce_odr noundef i32 @_ZNK7QWidget6heightEv(ptr noundef nonnull align 8 dereferenceable(48) %0) #4 comdat align 2 {
  %2 = alloca ptr, align 8
  store ptr %0, ptr %2, align 8
  %3 = load ptr, ptr %2, align 8
  %4 = getelementptr inbounds %class.QWidget, ptr %3, i32 0, i32 2
  %5 = load ptr, ptr %4, align 8
  %6 = getelementptr inbounds %class.QWidgetData, ptr %5, i32 0, i32 4
  %7 = call noundef i32 @_ZNK5QRect6heightEv(ptr noundef nonnull align 4 dereferenceable(16) %6) #3
  ret i32 %7
}

; Function Attrs: mustprogress nounwind uwtable
define linkonce_odr noundef i32 @_ZNK6QPoint1yEv(ptr noundef nonnull align 4 dereferenceable(8) %0) #4 comdat align 2 {
  %2 = alloca ptr, align 8
  store ptr %0, ptr %2, align 8
  %3 = load ptr, ptr %2, align 8
  %4 = getelementptr inbounds %class.QPoint, ptr %3, i32 0, i32 1
  %5 = load i32, ptr %4, align 4
  ret i32 %5
}

; Function Attrs: mustprogress nounwind uwtable
define linkonce_odr noundef i32 @_ZNK7QWidget5widthEv(ptr noundef nonnull align 8 dereferenceable(48) %0) #4 comdat align 2 {
  %2 = alloca ptr, align 8
  store ptr %0, ptr %2, align 8
  %3 = load ptr, ptr %2, align 8
  %4 = getelementptr inbounds %class.QWidget, ptr %3, i32 0, i32 2
  %5 = load ptr, ptr %4, align 8
  %6 = getelementptr inbounds %class.QWidgetData, ptr %5, i32 0, i32 4
  %7 = call noundef i32 @_ZNK5QRect5widthEv(ptr noundef nonnull align 4 dereferenceable(16) %6) #3
  ret i32 %7
}

; Function Attrs: mustprogress nounwind uwtable
define linkonce_odr noundef i32 @_ZNK6QPoint1xEv(ptr noundef nonnull align 4 dereferenceable(8) %0) #4 comdat align 2 {
  %2 = alloca ptr, align 8
  store ptr %0, ptr %2, align 8
  %3 = load ptr, ptr %2, align 8
  %4 = getelementptr inbounds %class.QPoint, ptr %3, i32 0, i32 0
  %5 = load i32, ptr %4, align 4
  ret i32 %5
}

; Function Attrs: mustprogress nounwind uwtable
define linkonce_odr void @_ZN6QPointC2Eii(ptr noundef nonnull align 4 dereferenceable(8) %0, i32 noundef %1, i32 noundef %2) unnamed_addr #4 comdat align 2 {
  %4 = alloca ptr, align 8
  %5 = alloca i32, align 4
  %6 = alloca i32, align 4
  store ptr %0, ptr %4, align 8
  store i32 %1, ptr %5, align 4
  store i32 %2, ptr %6, align 4
  %7 = load ptr, ptr %4, align 8
  %8 = getelementptr inbounds %class.QPoint, ptr %7, i32 0, i32 0
  %9 = load i32, ptr %5, align 4
  store i32 %9, ptr %8, align 4
  %10 = getelementptr inbounds %class.QPoint, ptr %7, i32 0, i32 1
  %11 = load i32, ptr %6, align 4
  store i32 %11, ptr %10, align 4
  ret void
}

; Function Attrs: mustprogress nounwind uwtable
define linkonce_odr void @_ZN6QFlagsIN2Qt14DockWidgetAreaEEC2ES1_(ptr noundef nonnull align 4 dereferenceable(4) %0, i32 noundef %1) unnamed_addr #4 comdat align 2 {
  %3 = alloca ptr, align 8
  %4 = alloca i32, align 4
  store ptr %0, ptr %3, align 8
  store i32 %1, ptr %4, align 4
  %5 = load ptr, ptr %3, align 8
  %6 = getelementptr inbounds %class.QFlags.79, ptr %5, i32 0, i32 0
  %7 = load i32, ptr %4, align 4
  store i32 %7, ptr %6, align 4
  ret void
}

; Function Attrs: mustprogress nounwind uwtable
define linkonce_odr void @_ZN6QFlagsIN11QDockWidget17DockWidgetFeatureEEC2ES1_(ptr noundef nonnull align 4 dereferenceable(4) %0, i32 noundef %1) unnamed_addr #4 comdat align 2 {
  %3 = alloca ptr, align 8
  %4 = alloca i32, align 4
  store ptr %0, ptr %3, align 8
  store i32 %1, ptr %4, align 4
  %5 = load ptr, ptr %3, align 8
  %6 = getelementptr inbounds %class.QFlags.78, ptr %5, i32 0, i32 0
  %7 = load i32, ptr %4, align 4
  store i32 %7, ptr %6, align 4
  ret void
}

; Function Attrs: mustprogress nounwind uwtable
define linkonce_odr void @_ZN4QMapIPN3vcg9AlignPair6ResultEP18MeshTreeWidgetItemEC2Ev(ptr noundef nonnull align 8 dereferenceable(8) %0) unnamed_addr #4 comdat align 2 {
  %2 = alloca ptr, align 8
  store ptr %0, ptr %2, align 8
  %3 = load ptr, ptr %2, align 8
  %4 = getelementptr inbounds %class.QMap.54, ptr %3, i32 0, i32 0
  store ptr @_ZN12QMapDataBase11shared_nullE, ptr %4, align 8
  ret void
}

; Function Attrs: mustprogress nounwind uwtable
define linkonce_odr void @_ZN4QMapIPN3vcg8MeshTreeI9MeshModelfE8MeshNodeEP18MeshTreeWidgetItemEC2Ev(ptr noundef nonnull align 8 dereferenceable(8) %0) unnamed_addr #4 comdat align 2 {
  %2 = alloca ptr, align 8
  store ptr %0, ptr %2, align 8
  %3 = load ptr, ptr %2, align 8
  %4 = getelementptr inbounds %class.QMap, ptr %3, i32 0, i32 0
  store ptr @_ZN12QMapDataBase11shared_nullE, ptr %4, align 8
  ret void
}

; Function Attrs: mustprogress nounwind uwtable
define linkonce_odr void @_ZN6QFlagsIN2Qt10WindowTypeEEC2Ev(ptr noundef nonnull align 4 dereferenceable(4) %0) unnamed_addr #4 comdat align 2 {
  %2 = alloca ptr, align 8
  store ptr %0, ptr %2, align 8
  %3 = load ptr, ptr %2, align 8
  %4 = getelementptr inbounds %class.QFlags.77, ptr %3, i32 0, i32 0
  store i32 0, ptr %4, align 4
  ret void
}

; Function Attrs: mustprogress uwtable
define void @_ZN11AlignDialogC2EP7QWidgetP15EditAlignPlugin(ptr noundef nonnull align 8 dereferenceable(376) %0, ptr noundef %1, ptr noundef %2) unnamed_addr #5 align 2 personality ptr @__gxx_personality_v0 {
  %4 = alloca ptr, align 8
  %5 = alloca ptr, align 8
  %6 = alloca ptr, align 8
  %7 = alloca %class.QFlags.77, align 4
  %8 = alloca ptr, align 8
  %9 = alloca i32, align 4
  %10 = alloca %class.QFlags.78, align 4
  %11 = alloca %class.QFlags.79, align 4
  %12 = alloca %class.QPoint, align 4
  %13 = alloca %class.QPoint, align 4
  %14 = alloca %"class.QMetaObject::Connection", align 8
  store ptr %0, ptr %4, align 8
  store ptr %1, ptr %5, align 8
  store ptr %2, ptr %6, align 8
  %15 = load ptr, ptr %4, align 8
  %16 = load ptr, ptr %5, align 8
  call void @_ZN6QFlagsIN2Qt10WindowTypeEEC2Ev(ptr noundef nonnull align 4 dereferenceable(4) %7) #3
  %17 = getelementptr inbounds %class.QFlags.77, ptr %7, i32 0, i32 0
  %18 = load i32, ptr %17, align 4
  call void @_ZN11QDockWidgetC2EP7QWidget6QFlagsIN2Qt10WindowTypeEE(ptr noundef nonnull align 8 dereferenceable(48) %15, ptr noundef %16, i32 %18)
  store ptr getelementptr inbounds ({ [54 x ptr], [10 x ptr] }, ptr @_ZTV11AlignDialog, i32 0, i32 0, i32 2), ptr %15, align 8
  %19 = getelementptr inbounds i8, ptr %15, i64 16
  store ptr getelementptr inbounds ({ [54 x ptr], [10 x ptr] }, ptr @_ZTV11AlignDialog, i32 0, i32 1, i32 2), ptr %19, align 8
  %20 = getelementptr inbounds %class.AlignDialog, ptr %15, i32 0, i32 6
  call void @_ZN4QMapIPN3vcg8MeshTreeI9MeshModelfE8MeshNodeEP18MeshTreeWidgetItemEC2Ev(ptr noundef nonnull align 8 dereferenceable(8) %20) #3
  %21 = getelementptr inbounds %class.AlignDialog, ptr %15, i32 0, i32 7
  call void @_ZN4QMapIPN3vcg9AlignPair6ResultEP18MeshTreeWidgetItemEC2Ev(ptr noundef nonnull align 8 dereferenceable(8) %21) #3
  %22 = getelementptr inbounds %class.AlignDialog, ptr %15, i32 0, i32 8
  call void @_ZN4QMapIPN3vcg9AlignPair6ResultEP18MeshTreeWidgetItemEC2Ev(ptr noundef nonnull align 8 dereferenceable(8) %22) #3
  %23 = getelementptr inbounds %class.AlignDialog, ptr %15, i32 0, i32 9
  invoke void @_ZN5QMenuC1EP7QWidget(ptr noundef nonnull align 8 dereferenceable(48) %23, ptr noundef null)
          to label %24 unwind label %70

24:                                               ; preds = %3
  %25 = getelementptr inbounds %class.AlignDialog, ptr %15, i32 0, i32 1
  invoke void @_ZN14Ui_alignDialog7setupUiEP7QWidget(ptr noundef nonnull align 8 dereferenceable(224) %25, ptr noundef %15)
          to label %26 unwind label %74

26:                                               ; preds = %24
  %27 = getelementptr inbounds %class.AlignDialog, ptr %15, i32 0, i32 1
  %28 = getelementptr inbounds %class.Ui_alignDialog, ptr %27, i32 0, i32 1
  %29 = load ptr, ptr %28, align 8
  invoke void @_ZN11QDockWidget9setWidgetEP7QWidget(ptr noundef nonnull align 8 dereferenceable(48) %15, ptr noundef %29)
          to label %30 unwind label %74

30:                                               ; preds = %26
  call void @_ZN6QFlagsIN11QDockWidget17DockWidgetFeatureEEC2ES1_(ptr noundef nonnull align 4 dereferenceable(4) %10, i32 noundef 7) #3
  %31 = getelementptr inbounds %class.QFlags.78, ptr %10, i32 0, i32 0
  %32 = load i32, ptr %31, align 4
  invoke void @_ZN11QDockWidget11setFeaturesE6QFlagsINS_17DockWidgetFeatureEE(ptr noundef nonnull align 8 dereferenceable(48) %15, i32 %32)
          to label %33 unwind label %74

33:                                               ; preds = %30
  call void @_ZN6QFlagsIN2Qt14DockWidgetAreaEEC2ES1_(ptr noundef nonnull align 4 dereferenceable(4) %11, i32 noundef 1) #3
  %34 = getelementptr inbounds %class.QFlags.79, ptr %11, i32 0, i32 0
  %35 = load i32, ptr %34, align 4
  invoke void @_ZN11QDockWidget15setAllowedAreasE6QFlagsIN2Qt14DockWidgetAreaEE(ptr noundef nonnull align 8 dereferenceable(48) %15, i32 %35)
          to label %36 unwind label %74

36:                                               ; preds = %33
  %37 = load ptr, ptr %5, align 8
  invoke void @_ZN6QPointC2Eii(ptr noundef nonnull align 4 dereferenceable(8) %13, i32 noundef 0, i32 noundef 0)
          to label %38 unwind label %74

38:                                               ; preds = %36
  %39 = invoke i64 @_ZNK7QWidget11mapToGlobalERK6QPoint(ptr noundef nonnull align 8 dereferenceable(48) %37, ptr noundef nonnull align 4 dereferenceable(8) %13)
          to label %40 unwind label %74

40:                                               ; preds = %38
  store i64 %39, ptr %12, align 4
  invoke void @_ZN11QDockWidget11setFloatingEb(ptr noundef nonnull align 8 dereferenceable(48) %15, i1 noundef zeroext true)
          to label %41 unwind label %74

41:                                               ; preds = %40
  %42 = invoke noundef i32 @_ZNK6QPoint1xEv(ptr noundef nonnull align 4 dereferenceable(8) %12)
          to label %43 unwind label %74

43:                                               ; preds = %41
  %44 = load ptr, ptr %5, align 8
  %45 = invoke noundef i32 @_ZNK7QWidget5widthEv(ptr noundef nonnull align 8 dereferenceable(48) %44)
          to label %46 unwind label %74

46:                                               ; preds = %43
  %47 = invoke noundef i32 @_ZNK7QWidget5widthEv(ptr noundef nonnull align 8 dereferenceable(48) %15)
          to label %48 unwind label %74

48:                                               ; preds = %46
  %49 = sub nsw i32 %45, %47
  %50 = add nsw i32 %42, %49
  %51 = invoke noundef i32 @_ZNK6QPoint1yEv(ptr noundef nonnull align 4 dereferenceable(8) %12)
          to label %52 unwind label %74

52:                                               ; preds = %48
  %53 = add nsw i32 %51, 40
  %54 = invoke noundef i32 @_ZNK7QWidget5widthEv(ptr noundef nonnull align 8 dereferenceable(48) %15)
          to label %55 unwind label %74

55:                                               ; preds = %52
  %56 = invoke noundef i32 @_ZNK7QWidget6heightEv(ptr noundef nonnull align 8 dereferenceable(48) %15)
          to label %57 unwind label %74

57:                                               ; preds = %55
  invoke void @_ZN7QWidget11setGeometryEiiii(ptr noundef nonnull align 8 dereferenceable(48) %15, i32 noundef %50, i32 noundef %53, i32 noundef %54, i32 noundef %56)
          to label %58 unwind label %74

58:                                               ; preds = %57
  %59 = load ptr, ptr %6, align 8
  %60 = getelementptr inbounds %class.AlignDialog, ptr %15, i32 0, i32 3
  store ptr %59, ptr %60, align 8
  %61 = getelementptr inbounds %class.AlignDialog, ptr %15, i32 0, i32 1
  %62 = getelementptr inbounds %class.Ui_alignDialog, ptr %61, i32 0, i32 3
  %63 = load ptr, ptr %62, align 8
  invoke void @_ZN7QObject7connectEPKS_PKcS1_S3_N2Qt14ConnectionTypeE(ptr dead_on_unwind writable sret(%"class.QMetaObject::Connection") align 8 %14, ptr noundef %63, ptr noundef @.str.6, ptr noundef %15, ptr noundef @.str.7, i32 noundef 0)
          to label %64 unwind label %74

64:                                               ; preds = %58
  call void @_ZN11QMetaObject10ConnectionD1Ev(ptr noundef nonnull align 8 dereferenceable(8) %14) #3
  %65 = getelementptr inbounds %class.AlignDialog, ptr %15, i32 0, i32 1
  %66 = getelementptr inbounds %class.Ui_alignDialog, ptr %65, i32 0, i32 27
  %67 = load ptr, ptr %66, align 8
  store ptr %67, ptr @_ZL17globalLogTextEdit, align 8
  %68 = getelementptr inbounds %class.AlignDialog, ptr %15, i32 0, i32 5
  store ptr null, ptr %68, align 8
  %69 = getelementptr inbounds %class.AlignDialog, ptr %15, i32 0, i32 4
  store ptr null, ptr %69, align 8
  ret void

70:                                               ; preds = %3
  %71 = landingpad { ptr, i32 }
          cleanup
  %72 = extractvalue { ptr, i32 } %71, 0
  store ptr %72, ptr %8, align 8
  %73 = extractvalue { ptr, i32 } %71, 1
  store i32 %73, ptr %9, align 4
  br label %78

74:                                               ; preds = %58, %57, %55, %52, %48, %46, %43, %41, %40, %38, %36, %33, %30, %26, %24
  %75 = landingpad { ptr, i32 }
          cleanup
  %76 = extractvalue { ptr, i32 } %75, 0
  store ptr %76, ptr %8, align 8
  %77 = extractvalue { ptr, i32 } %75, 1
  store i32 %77, ptr %9, align 4
  call void @_ZN5QMenuD1Ev(ptr noundef nonnull align 8 dereferenceable(48) %23) #3
  br label %78

78:                                               ; preds = %74, %70
  call void @_ZN4QMapIPN3vcg9AlignPair6ResultEP18MeshTreeWidgetItemED2Ev(ptr noundef nonnull align 8 dereferenceable(8) %22) #3
  call void @_ZN4QMapIPN3vcg9AlignPair6ResultEP18MeshTreeWidgetItemED2Ev(ptr noundef nonnull align 8 dereferenceable(8) %21) #3
  call void @_ZN4QMapIPN3vcg8MeshTreeI9MeshModelfE8MeshNodeEP18MeshTreeWidgetItemED2Ev(ptr noundef nonnull align 8 dereferenceable(8) %20) #3
  call void @_ZN11QDockWidgetD2Ev(ptr noundef nonnull align 8 dereferenceable(48) %15) #3
  br label %79

79:                                               ; preds = %78
  %80 = load ptr, ptr %8, align 8
  %81 = load i32, ptr %9, align 4
  %82 = insertvalue { ptr, i32 } poison, ptr %80, 0
  %83 = insertvalue { ptr, i32 } %82, i32 %81, 1
  resume { ptr, i32 } %83
}