; Function Attrs: mustprogress uwtable
define void @_ZN11AlignDialogC2EP7QWidgetP15EditAlignPlugin(ptr noundef nonnull align 8 dereferenceable(376) %0, ptr noundef %1, ptr noundef %2) unnamed_addr #9 align 2 personality ptr @__gxx_personality_v0 {
  %4 = alloca %class.QRect, align 4
  %5 = alloca %class.QPoint, align 4
  %6 = alloca %"class.QMetaObject::Connection", align 8
  tail call void @_ZN11QDockWidgetC2EP7QWidget6QFlagsIN2Qt10WindowTypeEE(ptr noundef nonnull align 8 dereferenceable(48) %0, ptr noundef %1, i32 0)
  store ptr getelementptr inbounds ({ [54 x ptr], [10 x ptr] }, ptr @_ZTV11AlignDialog, i64 0, i32 0, i64 2), ptr %0, align 8
  %7 = getelementptr inbounds i8, ptr %0, i64 16
  store ptr getelementptr inbounds ({ [54 x ptr], [10 x ptr] }, ptr @_ZTV11AlignDialog, i64 0, i32 1, i64 2), ptr %7, align 8
  %8 = getelementptr inbounds i8, ptr %0, i64 304
  store ptr @_ZN12QMapDataBase11shared_nullE, ptr %8, align 8
  %9 = getelementptr inbounds i8, ptr %0, i64 312
  store ptr @_ZN12QMapDataBase11shared_nullE, ptr %9, align 8
  %10 = getelementptr inbounds i8, ptr %0, i64 320
  store ptr @_ZN12QMapDataBase11shared_nullE, ptr %10, align 8
  %11 = getelementptr inbounds i8, ptr %0, i64 328
  invoke void @_ZN5QMenuC1EP7QWidget(ptr noundef nonnull align 8 dereferenceable(48) %11, ptr noundef null)
          to label %12 unwind label %61

12:                                               ; preds = %3
  %13 = getelementptr inbounds i8, ptr %0, i64 48
  invoke void @_ZN14Ui_alignDialog7setupUiEP7QWidget(ptr noundef nonnull align 8 dereferenceable(224) %13, ptr noundef nonnull %0)
          to label %14 unwind label %63

14:                                               ; preds = %12
  %15 = getelementptr inbounds i8, ptr %0, i64 56
  %16 = load ptr, ptr %15, align 8
  invoke void @_ZN11QDockWidget9setWidgetEP7QWidget(ptr noundef nonnull align 8 dereferenceable(48) %0, ptr noundef %16)
          to label %17 unwind label %63

17:                                               ; preds = %14
  invoke void @_ZN11QDockWidget11setFeaturesE6QFlagsINS_17DockWidgetFeatureEE(ptr noundef nonnull align 8 dereferenceable(48) %0, i32 7)
          to label %18 unwind label %63

18:                                               ; preds = %17
  invoke void @_ZN11QDockWidget15setAllowedAreasE6QFlagsIN2Qt14DockWidgetAreaEE(ptr noundef nonnull align 8 dereferenceable(48) %0, i32 1)
          to label %19 unwind label %63

19:                                               ; preds = %18
  store i32 0, ptr %5, align 4
  %20 = getelementptr inbounds i8, ptr %5, i64 4
  store i32 0, ptr %20, align 4
  %21 = invoke i64 @_ZNK7QWidget11mapToGlobalERK6QPoint(ptr noundef nonnull align 8 dereferenceable(48) %1, ptr noundef nonnull align 4 dereferenceable(8) %5)
          to label %22 unwind label %63

22:                                               ; preds = %19
  invoke void @_ZN11QDockWidget11setFloatingEb(ptr noundef nonnull align 8 dereferenceable(48) %0, i1 noundef zeroext true)
          to label %23 unwind label %63

23:                                               ; preds = %22
  %.sroa.2.0.extract.shift = lshr i64 %21, 32
  %.sroa.2.0.extract.trunc = trunc i64 %.sroa.2.0.extract.shift to i32
  %.sroa.0.0.extract.trunc = trunc i64 %21 to i32
  %24 = getelementptr inbounds i8, ptr %1, i64 40
  %25 = load ptr, ptr %24, align 8
  %26 = getelementptr inbounds i8, ptr %25, i64 20
  %27 = getelementptr inbounds i8, ptr %25, i64 28
  %28 = load i32, ptr %27, align 4
  %29 = load i32, ptr %26, align 4
  %30 = getelementptr inbounds i8, ptr %0, i64 40
  %31 = load ptr, ptr %30, align 8
  %32 = getelementptr inbounds i8, ptr %31, i64 20
  %33 = getelementptr inbounds i8, ptr %31, i64 28
  %34 = load i32, ptr %33, align 4
  %35 = load i32, ptr %32, align 4
  %36 = add i32 %34, 1
  %37 = sub i32 %36, %35
  %.neg13 = add i32 %.sroa.0.0.extract.trunc, 1
  %38 = add i32 %.neg13, %28
  %39 = add i32 %29, %37
  %40 = sub i32 %38, %39
  %41 = add i32 %.sroa.2.0.extract.trunc, 40
  %42 = getelementptr inbounds i8, ptr %31, i64 32
  %43 = load i32, ptr %42, align 4
  %44 = getelementptr inbounds i8, ptr %31, i64 24
  %45 = load i32, ptr %44, align 4
  call void @llvm.lifetime.start.p0(i64 16, ptr nonnull %4)
  store i32 %40, ptr %4, align 4
  %46 = getelementptr inbounds i8, ptr %4, i64 4
  store i32 %41, ptr %46, align 4
  %47 = getelementptr inbounds i8, ptr %4, i64 8
  %48 = add i32 %37, -1
  %49 = add i32 %48, %40
  store i32 %49, ptr %47, align 4
  %50 = getelementptr inbounds i8, ptr %4, i64 12
  %51 = add i32 %41, %43
  %52 = sub i32 %51, %45
  store i32 %52, ptr %50, align 4
  invoke void @_ZN7QWidget11setGeometryERK5QRect(ptr noundef nonnull align 8 dereferenceable(48) %0, ptr noundef nonnull align 4 dereferenceable(16) %4)
          to label %53 unwind label %63

53:                                               ; preds = %23
  call void @llvm.lifetime.end.p0(i64 16, ptr nonnull %4)
  %54 = getelementptr inbounds i8, ptr %0, i64 280
  store ptr %2, ptr %54, align 8
  %55 = getelementptr inbounds i8, ptr %0, i64 72
  %56 = load ptr, ptr %55, align 8
  invoke void @_ZN7QObject7connectEPKS_PKcS1_S3_N2Qt14ConnectionTypeE(ptr dead_on_unwind nonnull writable sret(%"class.QMetaObject::Connection") align 8 %6, ptr noundef %56, ptr noundef nonnull @.str.6, ptr noundef nonnull %0, ptr noundef nonnull @.str.7, i32 noundef 0)
          to label %57 unwind label %63

57:                                               ; preds = %53
  call void @_ZN11QMetaObject10ConnectionD1Ev(ptr noundef nonnull align 8 dereferenceable(8) %6) #19
  %58 = getelementptr inbounds i8, ptr %0, i64 264
  %59 = load ptr, ptr %58, align 8
  store ptr %59, ptr @_ZL17globalLogTextEdit, align 8
  %60 = getelementptr inbounds i8, ptr %0, i64 288
  call void @llvm.memset.p0.i64(ptr noundef nonnull align 8 dereferenceable(16) %60, i8 0, i64 16, i1 false)
  ret void

61:                                               ; preds = %3
  %62 = landingpad { ptr, i32 }
          cleanup
  br label %65

63:                                               ; preds = %23, %53, %22, %19, %18, %17, %14, %12
  %64 = landingpad { ptr, i32 }
          cleanup
  call void @_ZN5QMenuD1Ev(ptr noundef nonnull align 8 dereferenceable(48) %11) #19
  br label %65

65:                                               ; preds = %63, %61
  %.pn = phi { ptr, i32 } [ %64, %63 ], [ %62, %61 ]
  call void @_ZN4QMapIPN3vcg9AlignPair6ResultEP18MeshTreeWidgetItemED2Ev(ptr noundef nonnull align 8 dereferenceable(8) %10) #19
  call void @_ZN4QMapIPN3vcg9AlignPair6ResultEP18MeshTreeWidgetItemED2Ev(ptr noundef nonnull align 8 dereferenceable(8) %9) #19
  call void @_ZN4QMapIPN3vcg8MeshTreeI9MeshModelfE8MeshNodeEP18MeshTreeWidgetItemED2Ev(ptr noundef nonnull align 8 dereferenceable(8) %8) #19
  call void @_ZN11QDockWidgetD2Ev(ptr noundef nonnull align 8 dereferenceable(48) %0) #19
  resume { ptr, i32 } %.pn
}